target datalayout = "e-m:e-p270:32:32-p271:32:32-p272:64:64-i64:64-i128:128-f80:128-n8:16:32:64-S128"
target triple = "x86_64-pc-linux-gnu"

%struct._ikev2_uat_data = type { %struct._ikev2_uat_data_key, i32, i32, ptr, i32, ptr, i32, ptr, i32, ptr, i32, ptr, ptr }
%struct._ikev2_uat_data_key = type { ptr, i32, ptr, i32 }

@.str.1051 = private unnamed_addr constant [1 x i8] zeroinitializer, align 1

; Function Attrs: null_pointer_is_valid sspstrong uwtable
define internal void @ikev2_users_spii_tostr_cb(ptr noundef %0, ptr noundef %1, ptr noundef %2, ptr noundef %3, ptr noundef %4) #0 {
  %6 = alloca ptr, align 8
  %7 = alloca ptr, align 8
  %8 = alloca ptr, align 8
  %9 = alloca ptr, align 8
  %10 = alloca ptr, align 8
  store ptr %0, ptr %6, align 8
  store ptr %1, ptr %7, align 8
  store ptr %2, ptr %8, align 8
  store ptr %3, ptr %9, align 8
  store ptr %4, ptr %10, align 8
  %11 = load ptr, ptr %6, align 8
  %12 = getelementptr inbounds nuw %struct._ikev2_uat_data, ptr %11, i32 0, i32 0
  %13 = getelementptr inbounds nuw %struct._ikev2_uat_data_key, ptr %12, i32 0, i32 0
  %14 = load ptr, ptr %13, align 8
  %15 = icmp ne ptr %14, null
  br i1 %15, label %16, label %27

16:                                               ; preds = %5
  %17 = load ptr, ptr %6, align 8
  %18 = getelementptr inbounds nuw %struct._ikev2_uat_data, ptr %17, i32 0, i32 0
  %19 = getelementptr inbounds nuw %struct._ikev2_uat_data_key, ptr %18, i32 0, i32 0
  %20 = load ptr, ptr %19, align 8
  %21 = load ptr, ptr %6, align 8
  %22 = getelementptr inbounds nuw %struct._ikev2_uat_data, ptr %21, i32 0, i32 0
  %23 = getelementptr inbounds nuw %struct._ikev2_uat_data_key, ptr %22, i32 0, i32 1
  %24 = load i32, ptr %23, align 8
  %25 = zext i32 %24 to i64
  %26 = call ptr @g_memdup2(ptr noundef %20, i64 noundef %25) #17
  br label %29

27:                                               ; preds = %5
  %28 = call noalias ptr @g_strdup(ptr noundef @.str.1051)
  br label %29

29:                                               ; preds = %27, %16
  %30 = phi ptr [ %26, %16 ], [ %28, %27 ]
  %31 = load ptr, ptr %7, align 8
  store ptr %30, ptr %31, align 8
  %32 = load ptr, ptr %6, align 8
  %33 = getelementptr inbounds nuw %struct._ikev2_uat_data, ptr %32, i32 0, i32 0
  %34 = getelementptr inbounds nuw %struct._ikev2_uat_data_key, ptr %33, i32 0, i32 1
  %35 = load i32, ptr %34, align 8
  %36 = load ptr, ptr %8, align 8
  store i32 %35, ptr %36, align 4
  ret void
}